; Function Attrs: nounwind uwtable
define void @_ZTv0_n24_N2cv8saliency28MotionSaliencyBinWangApr2014D0Ev(ptr noundef %0) unnamed_addr #8 align 2 {
  %2 = load ptr, ptr %0, align 8, !tbaa !26
  %3 = getelementptr inbounds i8, ptr %2, i64 -24
  %4 = load i64, ptr %3, align 8
  %5 = getelementptr inbounds i8, ptr %0, i64 %4
  tail call void @_ZN2cv8saliency28MotionSaliencyBinWangApr2014D2Ev(ptr noundef nonnull align 8 dereferenceable(500) %5, ptr noundef nonnull @_ZTTN2cv8saliency28MotionSaliencyBinWangApr2014E) #24
  %6 = getelementptr inbounds nuw i8, ptr %5, i64 504
  tail call void @_ZN2cv8saliency8SaliencyD2Ev(ptr noundef nonnull align 8 dereferenceable(40) %6, ptr noundef nonnull getelementptr inbounds nuw (i8, ptr @_ZTTN2cv8saliency28MotionSaliencyBinWangApr2014E, i64 48)) #24
  tail call void @_ZN2cv9AlgorithmD2Ev(ptr noundef nonnull align 8 dereferenceable(500) %5) #24
  tail call void @_ZdlPv(ptr noundef nonnull align 8 dereferenceable(500) %5) #25
  ret void
}